; Function Attrs: mustprogress nofree norecurse nosync nounwind memory(readwrite, inaccessiblemem: none) uwtable
define dso_local void @_ZN22btDeformableBodySolver14revertVelocityEv(ptr noundef nonnull readonly align 8 captures(none) dereferenceable(609) %0) local_unnamed_addr #16 align 2 {
  %2 = getelementptr inbounds nuw i8, ptr %0, i64 156
  %3 = load i32, ptr %2, align 4, !tbaa !96
  %4 = icmp sgt i32 %3, 0
  br i1 %4, label %.lr.ph16, label %._crit_edge17

.lr.ph16:                                         ; preds = %1
  %5 = getelementptr inbounds nuw i8, ptr %0, i64 168
  %6 = getelementptr inbounds nuw i8, ptr %0, i64 200
  br label %7

._crit_edge17:                                    ; preds = %._crit_edge, %1
  ret void

7:                                                ; preds = %.lr.ph16, %._crit_edge
  %8 = phi i32 [ %3, %.lr.ph16 ], [ %18, %._crit_edge ]
  %indvars.iv23 = phi i64 [ 0, %.lr.ph16 ], [ %indvars.iv.next24, %._crit_edge ]
  %.0914 = phi i32 [ 0, %.lr.ph16 ], [ %.1.lcssa, %._crit_edge ]
  %9 = load ptr, ptr %5, align 8, !tbaa !95
  %10 = getelementptr inbounds nuw ptr, ptr %9, i64 %indvars.iv23
  %11 = load ptr, ptr %10, align 8, !tbaa !149
  %12 = getelementptr inbounds nuw i8, ptr %11, i64 932
  %13 = load i32, ptr %12, align 4, !tbaa !151
  %14 = icmp sgt i32 %13, 0
  br i1 %14, label %.lr.ph, label %._crit_edge

.lr.ph:                                           ; preds = %7
  %15 = getelementptr inbounds nuw i8, ptr %11, i64 944
  %16 = sext i32 %.0914 to i64
  br label %21

._crit_edge.loopexit:                             ; preds = %21
  %17 = trunc nsw i64 %indvars.iv.next19 to i32
  %.pre = load i32, ptr %2, align 4, !tbaa !96
  br label %._crit_edge

._crit_edge:                                      ; preds = %._crit_edge.loopexit, %7
  %18 = phi i32 [ %8, %7 ], [ %.pre, %._crit_edge.loopexit ]
  %.1.lcssa = phi i32 [ %.0914, %7 ], [ %17, %._crit_edge.loopexit ]
  %indvars.iv.next24 = add nuw nsw i64 %indvars.iv23, 1
  %19 = sext i32 %18 to i64
  %20 = icmp slt i64 %indvars.iv.next24, %19
  br i1 %20, label %7, label %._crit_edge17, !llvm.loop !294

21:                                               ; preds = %.lr.ph, %21
  %indvars.iv18 = phi i64 [ %16, %.lr.ph ], [ %indvars.iv.next19, %21 ]
  %indvars.iv = phi i64 [ 0, %.lr.ph ], [ %indvars.iv.next, %21 ]
  %indvars.iv.next19 = add nsw i64 %indvars.iv18, 1
  %22 = load ptr, ptr %6, align 8, !tbaa !29
  %23 = getelementptr inbounds %class.btVector3, ptr %22, i64 %indvars.iv18
  %24 = load ptr, ptr %15, align 8, !tbaa !156
  %25 = getelementptr inbounds nuw %"struct.btSoftBody::Node", ptr %24, i64 %indvars.iv, i32 3
  tail call void @llvm.memcpy.p0.p0.i64(ptr noundef nonnull align 8 dereferenceable(16) %25, ptr noundef nonnull align 4 dereferenceable(16) %23, i64 16, i1 false), !tbaa.struct !40
  %indvars.iv.next = add nuw nsw i64 %indvars.iv, 1
  %26 = load i32, ptr %12, align 4, !tbaa !151
  %27 = sext i32 %26 to i64
  %28 = icmp slt i64 %indvars.iv.next, %27
  br i1 %28, label %21, label %._crit_edge.loopexit, !llvm.loop !295
}